target datalayout = "e-m:e-p270:32:32-p271:32:32-p272:64:64-i64:64-i128:128-f80:128-n8:16:32:64-S128"
target triple = "x86_64-pc-linux-gnu"

%struct.FLAC__StreamMetadata_SeekTable = type { i32, ptr }
%struct.FLAC__StreamMetadata_SeekPoint = type { i64, i64, i32 }

; Function Attrs: nounwind sspstrong uwtable
define internal i32 @compare_block_data_seektable_(ptr noundef %0, ptr noundef %1) #0 {
  %3 = alloca i32, align 4
  %4 = alloca ptr, align 8
  %5 = alloca ptr, align 8
  %6 = alloca i32, align 4
  %7 = alloca i32, align 4
  store ptr %0, ptr %4, align 8, !tbaa !27
  store ptr %1, ptr %5, align 8, !tbaa !27
  call void @llvm.lifetime.start.p0(i64 4, ptr %6) #12
  %8 = load ptr, ptr %4, align 8, !tbaa !27
  %9 = getelementptr inbounds nuw %struct.FLAC__StreamMetadata_SeekTable, ptr %8, i32 0, i32 0
  %10 = load i32, ptr %9, align 8, !tbaa !46
  %11 = load ptr, ptr %5, align 8, !tbaa !27
  %12 = getelementptr inbounds nuw %struct.FLAC__StreamMetadata_SeekTable, ptr %11, i32 0, i32 0
  %13 = load i32, ptr %12, align 8, !tbaa !46
  %14 = icmp ne i32 %10, %13
  br i1 %14, label %15, label %16

15:                                               ; preds = %2
  store i32 0, ptr %3, align 4
  store i32 1, ptr %7, align 4
  br label %104

16:                                               ; preds = %2
  %17 = load ptr, ptr %4, align 8, !tbaa !27
  %18 = getelementptr inbounds nuw %struct.FLAC__StreamMetadata_SeekTable, ptr %17, i32 0, i32 1
  %19 = load ptr, ptr %18, align 8, !tbaa !48
  %20 = icmp ne ptr %19, null
  br i1 %20, label %21, label %95

21:                                               ; preds = %16
  %22 = load ptr, ptr %5, align 8, !tbaa !27
  %23 = getelementptr inbounds nuw %struct.FLAC__StreamMetadata_SeekTable, ptr %22, i32 0, i32 1
  %24 = load ptr, ptr %23, align 8, !tbaa !48
  %25 = icmp ne ptr %24, null
  br i1 %25, label %26, label %95

26:                                               ; preds = %21
  store i32 0, ptr %6, align 4, !tbaa !3
  br label %27

27:                                               ; preds = %91, %26
  %28 = load i32, ptr %6, align 4, !tbaa !3
  %29 = load ptr, ptr %4, align 8, !tbaa !27
  %30 = getelementptr inbounds nuw %struct.FLAC__StreamMetadata_SeekTable, ptr %29, i32 0, i32 0
  %31 = load i32, ptr %30, align 8, !tbaa !46
  %32 = icmp ult i32 %28, %31
  br i1 %32, label %33, label %94

33:                                               ; preds = %27
  %34 = load ptr, ptr %4, align 8, !tbaa !27
  %35 = getelementptr inbounds nuw %struct.FLAC__StreamMetadata_SeekTable, ptr %34, i32 0, i32 1
  %36 = load ptr, ptr %35, align 8, !tbaa !48
  %37 = load i32, ptr %6, align 4, !tbaa !3
  %38 = zext i32 %37 to i64
  %39 = getelementptr inbounds nuw %struct.FLAC__StreamMetadata_SeekPoint, ptr %36, i64 %38
  %40 = getelementptr inbounds nuw %struct.FLAC__StreamMetadata_SeekPoint, ptr %39, i32 0, i32 0
  %41 = load i64, ptr %40, align 8, !tbaa !49
  %42 = load ptr, ptr %5, align 8, !tbaa !27
  %43 = getelementptr inbounds nuw %struct.FLAC__StreamMetadata_SeekTable, ptr %42, i32 0, i32 1
  %44 = load ptr, ptr %43, align 8, !tbaa !48
  %45 = load i32, ptr %6, align 4, !tbaa !3
  %46 = zext i32 %45 to i64
  %47 = getelementptr inbounds nuw %struct.FLAC__StreamMetadata_SeekPoint, ptr %44, i64 %46
  %48 = getelementptr inbounds nuw %struct.FLAC__StreamMetadata_SeekPoint, ptr %47, i32 0, i32 0
  %49 = load i64, ptr %48, align 8, !tbaa !49
  %50 = icmp ne i64 %41, %49
  br i1 %50, label %51, label %52

51:                                               ; preds = %33
  store i32 0, ptr %3, align 4
  store i32 1, ptr %7, align 4
  br label %104

52:                                               ; preds = %33
  %53 = load ptr, ptr %4, align 8, !tbaa !27
  %54 = getelementptr inbounds nuw %struct.FLAC__StreamMetadata_SeekTable, ptr %53, i32 0, i32 1
  %55 = load ptr, ptr %54, align 8, !tbaa !48
  %56 = load i32, ptr %6, align 4, !tbaa !3
  %57 = zext i32 %56 to i64
  %58 = getelementptr inbounds nuw %struct.FLAC__StreamMetadata_SeekPoint, ptr %55, i64 %57
  %59 = getelementptr inbounds nuw %struct.FLAC__StreamMetadata_SeekPoint, ptr %58, i32 0, i32 1
  %60 = load i64, ptr %59, align 8, !tbaa !51
  %61 = load ptr, ptr %5, align 8, !tbaa !27
  %62 = getelementptr inbounds nuw %struct.FLAC__StreamMetadata_SeekTable, ptr %61, i32 0, i32 1
  %63 = load ptr, ptr %62, align 8, !tbaa !48
  %64 = load i32, ptr %6, align 4, !tbaa !3
  %65 = zext i32 %64 to i64
  %66 = getelementptr inbounds nuw %struct.FLAC__StreamMetadata_SeekPoint, ptr %63, i64 %65
  %67 = getelementptr inbounds nuw %struct.FLAC__StreamMetadata_SeekPoint, ptr %66, i32 0, i32 1
  %68 = load i64, ptr %67, align 8, !tbaa !51
  %69 = icmp ne i64 %60, %68
  br i1 %69, label %70, label %71

70:                                               ; preds = %52
  store i32 0, ptr %3, align 4
  store i32 1, ptr %7, align 4
  br label %104

71:                                               ; preds = %52
  %72 = load ptr, ptr %4, align 8, !tbaa !27
  %73 = getelementptr inbounds nuw %struct.FLAC__StreamMetadata_SeekTable, ptr %72, i32 0, i32 1
  %74 = load ptr, ptr %73, align 8, !tbaa !48
  %75 = load i32, ptr %6, align 4, !tbaa !3
  %76 = zext i32 %75 to i64
  %77 = getelementptr inbounds nuw %struct.FLAC__StreamMetadata_SeekPoint, ptr %74, i64 %76
  %78 = getelementptr inbounds nuw %struct.FLAC__StreamMetadata_SeekPoint, ptr %77, i32 0, i32 2
  %79 = load i32, ptr %78, align 8, !tbaa !52
  %80 = load ptr, ptr %5, align 8, !tbaa !27
  %81 = getelementptr inbounds nuw %struct.FLAC__StreamMetadata_SeekTable, ptr %80, i32 0, i32 1
  %82 = load ptr, ptr %81, align 8, !tbaa !48
  %83 = load i32, ptr %6, align 4, !tbaa !3
  %84 = zext i32 %83 to i64
  %85 = getelementptr inbounds nuw %struct.FLAC__StreamMetadata_SeekPoint, ptr %82, i64 %84
  %86 = getelementptr inbounds nuw %struct.FLAC__StreamMetadata_SeekPoint, ptr %85, i32 0, i32 2
  %87 = load i32, ptr %86, align 8, !tbaa !52
  %88 = icmp ne i32 %79, %87
  br i1 %88, label %89, label %90

89:                                               ; preds = %71
  store i32 0, ptr %3, align 4
  store i32 1, ptr %7, align 4
  br label %104

90:                                               ; preds = %71
  br label %91

91:                                               ; preds = %90
  %92 = load i32, ptr %6, align 4, !tbaa !3
  %93 = add i32 %92, 1
  store i32 %93, ptr %6, align 4, !tbaa !3
  br label %27, !llvm.loop !53

94:                                               ; preds = %27
  store i32 1, ptr %3, align 4
  store i32 1, ptr %7, align 4
  br label %104

95:                                               ; preds = %21, %16
  %96 = load ptr, ptr %4, align 8, !tbaa !27
  %97 = getelementptr inbounds nuw %struct.FLAC__StreamMetadata_SeekTable, ptr %96, i32 0, i32 1
  %98 = load ptr, ptr %97, align 8, !tbaa !48
  %99 = load ptr, ptr %5, align 8, !tbaa !27
  %100 = getelementptr inbounds nuw %struct.FLAC__StreamMetadata_SeekTable, ptr %99, i32 0, i32 1
  %101 = load ptr, ptr %100, align 8, !tbaa !48
  %102 = icmp eq ptr %98, %101
  %103 = zext i1 %102 to i32
  store i32 %103, ptr %3, align 4
  store i32 1, ptr %7, align 4
  br label %104

104:                                              ; preds = %95, %94, %89, %70, %51, %15
  call void @llvm.lifetime.end.p0(i64 4, ptr %6) #12
  %105 = load i32, ptr %3, align 4
  ret i32 %105
}