; Function Attrs: nofree norecurse nosync nounwind sspstrong memory(read, inaccessiblemem: none) uwtable
define internal fastcc range(i32 0, 2) i32 @compare_block_data_seektable_(ptr noundef readonly captures(none) %0, ptr noundef readonly captures(none) %1) unnamed_addr #9 {
  %3 = load i32, ptr %0, align 8, !tbaa !40
  %4 = load i32, ptr %1, align 8, !tbaa !40
  %.not = icmp eq i32 %3, %4
  br i1 %.not, label %5, label %.loopexit

5:                                                ; preds = %2
  %6 = getelementptr inbounds nuw i8, ptr %0, i64 8
  %7 = load ptr, ptr %6, align 8, !tbaa !42
  %.not22 = icmp eq ptr %7, null
  %.phi.trans.insert = getelementptr inbounds nuw i8, ptr %1, i64 8
  %.pre = load ptr, ptr %.phi.trans.insert, align 8, !tbaa !42
  br i1 %.not22, label %._crit_edge, label %8

8:                                                ; preds = %5
  %.not23 = icmp eq ptr %.pre, null
  br i1 %.not23, label %._crit_edge, label %.preheader

.preheader:                                       ; preds = %8
  %.not34 = icmp eq i32 %3, 0
  br i1 %.not34, label %.loopexit, label %.lr.ph.preheader

.lr.ph.preheader:                                 ; preds = %.preheader
  %wide.trip.count = zext i32 %3 to i64
  br label %.lr.ph

9:                                                ; preds = %19
  %indvars.iv.next = add nuw nsw i64 %indvars.iv, 1
  %exitcond.not = icmp eq i64 %indvars.iv.next, %wide.trip.count
  br i1 %exitcond.not, label %.loopexit, label %.lr.ph, !llvm.loop !43

.lr.ph:                                           ; preds = %.lr.ph.preheader, %9
  %indvars.iv = phi i64 [ 0, %.lr.ph.preheader ], [ %indvars.iv.next, %9 ]
  %10 = getelementptr inbounds nuw %struct.FLAC__StreamMetadata_SeekPoint, ptr %7, i64 %indvars.iv
  %11 = load i64, ptr %10, align 8, !tbaa !44
  %12 = getelementptr inbounds nuw %struct.FLAC__StreamMetadata_SeekPoint, ptr %.pre, i64 %indvars.iv
  %13 = load i64, ptr %12, align 8, !tbaa !44
  %.not24 = icmp eq i64 %11, %13
  br i1 %.not24, label %14, label %.loopexit

14:                                               ; preds = %.lr.ph
  %15 = getelementptr inbounds nuw i8, ptr %10, i64 8
  %16 = load i64, ptr %15, align 8, !tbaa !46
  %17 = getelementptr inbounds nuw i8, ptr %12, i64 8
  %18 = load i64, ptr %17, align 8, !tbaa !46
  %.not25 = icmp eq i64 %16, %18
  br i1 %.not25, label %19, label %.loopexit

19:                                               ; preds = %14
  %20 = getelementptr inbounds nuw i8, ptr %10, i64 16
  %21 = load i32, ptr %20, align 8, !tbaa !47
  %22 = getelementptr inbounds nuw i8, ptr %12, i64 16
  %23 = load i32, ptr %22, align 8, !tbaa !47
  %.not26 = icmp eq i32 %21, %23
  br i1 %.not26, label %9, label %.loopexit

._crit_edge:                                      ; preds = %5, %8
  %24 = phi ptr [ null, %8 ], [ %.pre, %5 ]
  %25 = icmp eq ptr %7, %24
  %26 = zext i1 %25 to i32
  br label %.loopexit

.loopexit:                                        ; preds = %.lr.ph, %14, %19, %9, %.preheader, %2, %._crit_edge
  %.021 = phi i32 [ %26, %._crit_edge ], [ 0, %2 ], [ 1, %.preheader ], [ 0, %.lr.ph ], [ 0, %14 ], [ 0, %19 ], [ 1, %9 ]
  ret i32 %.021
}